target datalayout = "e-m:e-p270:32:32-p271:32:32-p272:64:64-i64:64-i128:128-f80:128-n8:16:32:64-S128"
target triple = "x86_64-pc-linux-gnu"

%struct.ucd_record = type { i8, i8, i8, i8, i32, i16, i16 }
%struct.compiler_common = type { ptr, ptr, ptr, ptr, ptr, ptr, ptr, ptr, i32, i32, i32, i32, i32, i32, i32, i32, i32, i32, i32, ptr, i32, i32, i32, ptr, ptr, i64, i32, i32, i32, i32, i32, i32, i32, i32, i32, i32, i32, i32, i32, i32, i32, i32, i32, i64, ptr, i64, i64, ptr, ptr, ptr, ptr, ptr, ptr, ptr, ptr, ptr, ptr, ptr, ptr, ptr, ptr, ptr, ptr, ptr, ptr, ptr, ptr, ptr, ptr, ptr, ptr, ptr, ptr, i32, i32, i32, i32, i32, i32, ptr, ptr, ptr, ptr, ptr, ptr, ptr, ptr, ptr }

@_pcre2_ucd_records_8 = external constant [0 x %struct.ucd_record], align 4
@_pcre2_ucd_stage2_8 = external constant [0 x i16], align 2
@_pcre2_ucd_stage1_8 = external constant [0 x i16], align 2

; Function Attrs: nounwind uwtable
define internal i32 @char_othercase(ptr noundef %0, i32 noundef %1) #0 {
  %3 = alloca i32, align 4
  %4 = alloca ptr, align 8
  %5 = alloca i32, align 4
  store ptr %0, ptr %4, align 8
  store i32 %1, ptr %5, align 4
  %6 = load ptr, ptr %4, align 8
  %7 = getelementptr inbounds %struct.compiler_common, ptr %6, i32 0, i32 75
  %8 = load i32, ptr %7, align 8
  %9 = icmp ne i32 %8, 0
  br i1 %9, label %15, label %10

10:                                               ; preds = %2
  %11 = load ptr, ptr %4, align 8
  %12 = getelementptr inbounds %struct.compiler_common, ptr %11, i32 0, i32 77
  %13 = load i32, ptr %12, align 8
  %14 = icmp ne i32 %13, 0
  br i1 %14, label %15, label %39

15:                                               ; preds = %10, %2
  %16 = load i32, ptr %5, align 4
  %17 = icmp ugt i32 %16, 127
  br i1 %17, label %18, label %39

18:                                               ; preds = %15
  %19 = load i32, ptr %5, align 4
  %20 = load i32, ptr %5, align 4
  %21 = sdiv i32 %20, 128
  %22 = sext i32 %21 to i64
  %23 = getelementptr inbounds [0 x i16], ptr @_pcre2_ucd_stage1_8, i64 0, i64 %22
  %24 = load i16, ptr %23, align 2
  %25 = zext i16 %24 to i32
  %26 = mul nsw i32 %25, 128
  %27 = load i32, ptr %5, align 4
  %28 = srem i32 %27, 128
  %29 = add nsw i32 %26, %28
  %30 = sext i32 %29 to i64
  %31 = getelementptr inbounds [0 x i16], ptr @_pcre2_ucd_stage2_8, i64 0, i64 %30
  %32 = load i16, ptr %31, align 2
  %33 = zext i16 %32 to i32
  %34 = sext i32 %33 to i64
  %35 = getelementptr inbounds %struct.ucd_record, ptr @_pcre2_ucd_records_8, i64 %34
  %36 = getelementptr inbounds %struct.ucd_record, ptr %35, i32 0, i32 4
  %37 = load i32, ptr %36, align 4
  %38 = add nsw i32 %19, %37
  store i32 %38, ptr %3, align 4
  br label %48

39:                                               ; preds = %15, %10
  %40 = load ptr, ptr %4, align 8
  %41 = getelementptr inbounds %struct.compiler_common, ptr %40, i32 0, i32 24
  %42 = load ptr, ptr %41, align 8
  %43 = load i32, ptr %5, align 4
  %44 = zext i32 %43 to i64
  %45 = getelementptr inbounds i8, ptr %42, i64 %44
  %46 = load i8, ptr %45, align 1
  %47 = zext i8 %46 to i32
  store i32 %47, ptr %3, align 4
  br label %48

48:                                               ; preds = %39, %18
  %49 = load i32, ptr %3, align 4
  ret i32 %49
}