; Function Attrs: mustprogress nofree norecurse nosync nounwind willreturn memory(read, inaccessiblemem: none) uwtable
define internal fastcc i32 @char_othercase(ptr nocapture noundef readonly %0, i32 noundef %1) unnamed_addr #10 {
  %3 = getelementptr inbounds i8, ptr %0, i64 480
  %4 = load i32, ptr %3, align 8
  %.not = icmp eq i32 %4, 0
  br i1 %.not, label %5, label %10

5:                                                ; preds = %2
  %6 = getelementptr inbounds i8, ptr %0, i64 488
  %7 = load i32, ptr %6, align 8
  %8 = icmp ne i32 %7, 0
  %9 = icmp ugt i32 %1, 127
  %or.cond = and i1 %9, %8
  br i1 %or.cond, label %11, label %27

10:                                               ; preds = %2
  %.old1 = icmp ugt i32 %1, 127
  br i1 %.old1, label %11, label %27

11:                                               ; preds = %5, %10
  %12 = lshr i32 %1, 7
  %13 = zext nneg i32 %12 to i64
  %14 = getelementptr inbounds [0 x i16], ptr @_pcre2_ucd_stage1_8, i64 0, i64 %13
  %15 = load i16, ptr %14, align 2
  %16 = zext i16 %15 to i32
  %17 = shl nuw nsw i32 %16, 7
  %18 = and i32 %1, 127
  %19 = or disjoint i32 %17, %18
  %20 = zext nneg i32 %19 to i64
  %21 = getelementptr inbounds [0 x i16], ptr @_pcre2_ucd_stage2_8, i64 0, i64 %20
  %22 = load i16, ptr %21, align 2
  %23 = zext i16 %22 to i64
  %24 = getelementptr inbounds %struct.ucd_record, ptr @_pcre2_ucd_records_8, i64 %23, i32 4
  %25 = load i32, ptr %24, align 4
  %26 = add nsw i32 %25, %1
  br label %34

27:                                               ; preds = %10, %5
  %28 = getelementptr inbounds i8, ptr %0, i64 144
  %29 = load ptr, ptr %28, align 8
  %30 = zext nneg i32 %1 to i64
  %31 = getelementptr inbounds i8, ptr %29, i64 %30
  %32 = load i8, ptr %31, align 1
  %33 = zext i8 %32 to i32
  br label %34

34:                                               ; preds = %27, %11
  %.0 = phi i32 [ %26, %11 ], [ %33, %27 ]
  ret i32 %.0
}